; Function Attrs: nounwind uwtable
define dso_local void @PyEval_AcquireLock() local_unnamed_addr #4 {
  %1 = tail call align 8 ptr @llvm.threadlocal.address.p0(ptr align 8 @_Py_tss_tstate)
  %2 = load ptr, ptr %1, align 8, !tbaa !4
  %3 = icmp eq ptr %2, null
  br i1 %3, label %4, label %_Py_EnsureFuncTstateNotNULL.exit

4:                                                ; preds = %0
  tail call void @_Py_FatalErrorFunc(ptr noundef nonnull @__func__.PyEval_AcquireLock, ptr noundef nonnull @.str.9) #15
  unreachable

_Py_EnsureFuncTstateNotNULL.exit:                 ; preds = %0
  tail call fastcc void @take_gil(ptr noundef nonnull %2)
  ret void
}